target datalayout = "e-m:e-p270:32:32-p271:32:32-p272:64:64-i64:64-i128:128-f80:128-n8:16:32:64-S128"
target triple = "x86_64-pc-linux-gnu"

@.str.1 = private unnamed_addr constant [12 x i8] c"androiddump\00", align 1
@.str.2 = private unnamed_addr constant [21 x i8] c"extcap/androiddump.c\00", align 1
@.str.107 = private unnamed_addr constant [54 x i8] c"Service name too long when sending <%s> to ADB daemon\00", align 1
@.str.109 = private unnamed_addr constant [6 x i8] c"%04zx\00", align 1
@.str.111 = private unnamed_addr constant [39 x i8] c"Error while sending <%s> to ADB daemon\00", align 1
@.str.112 = private unnamed_addr constant [62 x i8] c"Broken socket connection while fetching reply status for <%s>\00", align 1
@.str.115 = private unnamed_addr constant [5 x i8] c"OKAY\00", align 1
@__func__.adb_send = private unnamed_addr constant [9 x i8] c"adb_send\00", align 1
@.str.134 = private unnamed_addr constant [32 x i8] c"Error while sending <%s> to ADB\00", align 1

; Function Attrs: null_pointer_is_valid sspstrong uwtable
define internal i32 @adb_send(i32 noundef %0, ptr noundef %1) #0 {
  %3 = alloca i32, align 4
  %4 = alloca i32, align 4
  %5 = alloca ptr, align 8
  %6 = alloca [5 x i8], align 1
  %7 = alloca i32, align 4
  %8 = alloca i64, align 8
  %9 = alloca i64, align 8
  %10 = alloca i32, align 4
  store i32 %0, ptr %4, align 4
  store ptr %1, ptr %5, align 8
  call void @llvm.lifetime.start.p0(i64 5, ptr %6) #17
  call void @llvm.lifetime.start.p0(i64 4, ptr %7) #17
  call void @llvm.lifetime.start.p0(i64 8, ptr %8) #17
  call void @llvm.lifetime.start.p0(i64 8, ptr %9) #17
  %11 = load ptr, ptr %5, align 8
  %12 = call i64 @strlen(ptr noundef %11) #21
  store i64 %12, ptr %9, align 8
  %13 = getelementptr inbounds [5 x i8], ptr %6, i64 0, i64 0
  %14 = load i64, ptr %9, align 8
  %15 = call i32 (ptr, i64, i32, i64, ptr, ...) @__snprintf_chk(ptr noundef %13, i64 noundef 5, i32 noundef 2, i64 noundef 5, ptr noundef @.str.109, i64 noundef %14)
  %16 = sext i32 %15 to i64
  store i64 %16, ptr %8, align 8
  %17 = load i64, ptr %8, align 8
  %18 = icmp uge i64 %17, 5
  br i1 %18, label %19, label %24

19:                                               ; preds = %2
  br label %20

20:                                               ; preds = %19
  %21 = load ptr, ptr %5, align 8
  call void (ptr, i32, ptr, i64, ptr, ptr, ...) @ws_log_full(ptr noundef @.str.1, i32 noundef 5, ptr noundef @.str.2, i64 noundef 828, ptr noundef @__func__.adb_send, ptr noundef @.str.107, ptr noundef %21)
  br label %22

22:                                               ; preds = %20
  br label %23

23:                                               ; preds = %22
  store i32 28, ptr %3, align 4
  store i32 1, ptr %10, align 4
  br label %85

24:                                               ; preds = %2
  %25 = load i32, ptr %4, align 4
  %26 = getelementptr inbounds [5 x i8], ptr %6, i64 0, i64 0
  %27 = call i64 @send(i32 noundef %25, ptr noundef %26, i64 noundef 4, i32 noundef 0)
  store i64 %27, ptr %8, align 8
  %28 = load i64, ptr %8, align 8
  %29 = icmp slt i64 %28, 4
  br i1 %29, label %30, label %35

30:                                               ; preds = %24
  br label %31

31:                                               ; preds = %30
  %32 = load ptr, ptr %5, align 8
  call void (ptr, i32, ptr, i64, ptr, ptr, ...) @ws_log_full(ptr noundef @.str.1, i32 noundef 5, ptr noundef @.str.2, i64 noundef 834, ptr noundef @__func__.adb_send, ptr noundef @.str.111, ptr noundef %32)
  br label %33

33:                                               ; preds = %31
  br label %34

34:                                               ; preds = %33
  store i32 28, ptr %3, align 4
  store i32 1, ptr %10, align 4
  br label %85

35:                                               ; preds = %24
  %36 = load i32, ptr %4, align 4
  %37 = load ptr, ptr %5, align 8
  %38 = load i64, ptr %9, align 8
  %39 = trunc i64 %38 to i32
  %40 = sext i32 %39 to i64
  %41 = call i64 @send(i32 noundef %36, ptr noundef %37, i64 noundef %40, i32 noundef 0)
  store i64 %41, ptr %8, align 8
  %42 = load i64, ptr %8, align 8
  %43 = load i64, ptr %9, align 8
  %44 = icmp ne i64 %42, %43
  br i1 %44, label %45, label %50

45:                                               ; preds = %35
  br label %46

46:                                               ; preds = %45
  %47 = load ptr, ptr %5, align 8
  call void (ptr, i32, ptr, i64, ptr, ptr, ...) @ws_log_full(ptr noundef @.str.1, i32 noundef 5, ptr noundef @.str.2, i64 noundef 840, ptr noundef @__func__.adb_send, ptr noundef @.str.134, ptr noundef %47)
  br label %48

48:                                               ; preds = %46
  br label %49

49:                                               ; preds = %48
  store i32 28, ptr %3, align 4
  store i32 1, ptr %10, align 4
  br label %85

50:                                               ; preds = %35
  store i32 0, ptr %7, align 4
  br label %51

51:                                               ; preds = %71, %50
  %52 = load i32, ptr %7, align 4
  %53 = icmp slt i32 %52, 4
  br i1 %53, label %54, label %76

54:                                               ; preds = %51
  %55 = load i32, ptr %4, align 4
  %56 = getelementptr inbounds [5 x i8], ptr %6, i64 0, i64 0
  %57 = load i32, ptr %7, align 4
  %58 = sext i32 %57 to i64
  %59 = getelementptr i8, ptr %56, i64 %58
  %60 = load i32, ptr %7, align 4
  %61 = sub i32 4, %60
  %62 = sext i32 %61 to i64
  %63 = call i64 @recv(i32 noundef %55, ptr noundef %59, i64 noundef %62, i32 noundef 0)
  store i64 %63, ptr %8, align 8
  %64 = load i64, ptr %8, align 8
  %65 = icmp sle i64 %64, 0
  br i1 %65, label %66, label %71

66:                                               ; preds = %54
  br label %67

67:                                               ; preds = %66
  %68 = load ptr, ptr %5, align 8
  call void (ptr, i32, ptr, i64, ptr, ptr, ...) @ws_log_full(ptr noundef @.str.1, i32 noundef 5, ptr noundef @.str.2, i64 noundef 849, ptr noundef @__func__.adb_send, ptr noundef @.str.112, ptr noundef %68)
  br label %69

69:                                               ; preds = %67
  br label %70

70:                                               ; preds = %69
  store i32 32, ptr %3, align 4
  store i32 1, ptr %10, align 4
  br label %85

71:                                               ; preds = %54
  %72 = load i64, ptr %8, align 8
  %73 = trunc i64 %72 to i32
  %74 = load i32, ptr %7, align 4
  %75 = add i32 %74, %73
  store i32 %75, ptr %7, align 4
  br label %51, !llvm.loop !59

76:                                               ; preds = %51
  %77 = getelementptr inbounds [5 x i8], ptr %6, i64 0, i64 0
  %78 = call i32 @memcmp(ptr noundef %77, ptr noundef @.str.115, i64 noundef 4) #21
  %79 = icmp ne i32 %78, 0
  br i1 %79, label %80, label %84

80:                                               ; preds = %76
  br label %81

81:                                               ; preds = %80
  br label %82

82:                                               ; preds = %81
  br label %83

83:                                               ; preds = %82
  store i32 33, ptr %3, align 4
  store i32 1, ptr %10, align 4
  br label %85

84:                                               ; preds = %76
  store i32 0, ptr %3, align 4
  store i32 1, ptr %10, align 4
  br label %85

85:                                               ; preds = %84, %83, %70, %49, %34, %23
  call void @llvm.lifetime.end.p0(i64 8, ptr %9) #17
  call void @llvm.lifetime.end.p0(i64 8, ptr %8) #17
  call void @llvm.lifetime.end.p0(i64 4, ptr %7) #17
  call void @llvm.lifetime.end.p0(i64 5, ptr %6) #17
  %86 = load i32, ptr %3, align 4
  ret i32 %86
}