; Function Attrs: null_pointer_is_valid sspstrong uwtable
define internal fastcc range(i32 0, 34) i32 @adb_send(i32 noundef range(i32 0, -1) %0, ptr noundef %1) unnamed_addr #0 {
  %3 = alloca [5 x i8], align 1
  call void @llvm.lifetime.start.p0(i64 5, ptr nonnull %3) #19
  %4 = tail call i64 @strlen(ptr noundef %1) #22
  %5 = call i32 (ptr, i64, i32, i64, ptr, ...) @__snprintf_chk(ptr noundef nonnull %3, i64 noundef 5, i32 noundef 2, i64 noundef 5, ptr noundef nonnull @.str.109, i64 noundef %4)
  %6 = icmp ugt i32 %5, 4
  br i1 %6, label %7, label %8

7:                                                ; preds = %2
  call void (ptr, i32, ptr, i64, ptr, ptr, ...) @ws_log_full(ptr noundef nonnull @.str.1, i32 noundef 5, ptr noundef nonnull @.str.2, i64 noundef 828, ptr noundef nonnull @__func__.adb_send, ptr noundef nonnull @.str.107, ptr noundef %1)
  br label %28

8:                                                ; preds = %2
  %9 = call i64 @send(i32 noundef %0, ptr noundef nonnull %3, i64 noundef 4, i32 noundef 0)
  %10 = icmp slt i64 %9, 4
  br i1 %10, label %11, label %12

11:                                               ; preds = %8
  call void (ptr, i32, ptr, i64, ptr, ptr, ...) @ws_log_full(ptr noundef nonnull @.str.1, i32 noundef 5, ptr noundef nonnull @.str.2, i64 noundef 834, ptr noundef nonnull @__func__.adb_send, ptr noundef nonnull @.str.111, ptr noundef %1)
  br label %28

12:                                               ; preds = %8
  %sext = shl i64 %4, 32
  %13 = ashr exact i64 %sext, 32
  %14 = call i64 @send(i32 noundef %0, ptr noundef %1, i64 noundef %13, i32 noundef 0)
  %.not = icmp eq i64 %14, %4
  br i1 %.not, label %.preheader, label %15

15:                                               ; preds = %12
  call void (ptr, i32, ptr, i64, ptr, ptr, ...) @ws_log_full(ptr noundef nonnull @.str.1, i32 noundef 5, ptr noundef nonnull @.str.2, i64 noundef 840, ptr noundef nonnull @__func__.adb_send, ptr noundef nonnull @.str.134, ptr noundef %1)
  br label %28

16:                                               ; preds = %.preheader
  %17 = trunc i64 %24 to i32
  %18 = add i32 %.02124, %17
  %19 = icmp slt i32 %18, 4
  br i1 %19, label %.preheader, label %27, !llvm.loop !61

.preheader:                                       ; preds = %12, %16
  %.02124 = phi i32 [ %18, %16 ], [ 0, %12 ]
  %20 = sext i32 %.02124 to i64
  %21 = getelementptr i8, ptr %3, i64 %20
  %22 = sub i32 4, %.02124
  %23 = sext i32 %22 to i64
  %24 = call i64 @recv(i32 noundef %0, ptr noundef %21, i64 noundef %23, i32 noundef 0)
  %25 = icmp slt i64 %24, 1
  br i1 %25, label %26, label %16

26:                                               ; preds = %.preheader
  call void (ptr, i32, ptr, i64, ptr, ptr, ...) @ws_log_full(ptr noundef nonnull @.str.1, i32 noundef 5, ptr noundef nonnull @.str.2, i64 noundef 849, ptr noundef nonnull @__func__.adb_send, ptr noundef nonnull @.str.112, ptr noundef %1)
  br label %28

27:                                               ; preds = %16
  %bcmp = call i32 @bcmp(ptr noundef nonnull dereferenceable(4) %3, ptr noundef nonnull dereferenceable(4) @.str.115, i64 4)
  %.not23 = icmp eq i32 %bcmp, 0
  %. = select i1 %.not23, i32 0, i32 33
  br label %28

28:                                               ; preds = %27, %26, %15, %11, %7
  %.0 = phi i32 [ 28, %7 ], [ 28, %11 ], [ 28, %15 ], [ 32, %26 ], [ %., %27 ]
  call void @llvm.lifetime.end.p0(i64 5, ptr nonnull %3) #19
  ret i32 %.0
}